; Function Attrs: nounwind uwtable
define internal fastcc void @newarc(ptr noundef captures(none) %0, i32 noundef %1, i16 noundef signext %2, ptr noundef %3, ptr noundef %4) unnamed_addr #0 {
  %6 = load volatile i32, ptr @InterruptPending, align 4
  %.not = icmp eq i32 %6, 0
  br i1 %.not, label %8, label %7, !prof !13

7:                                                ; preds = %5
  tail call void @ProcessInterrupts() #20
  br label %8

8:                                                ; preds = %7, %5
  %9 = getelementptr inbounds nuw i8, ptr %3, i64 12
  %10 = load i32, ptr %9, align 4
  %11 = getelementptr inbounds nuw i8, ptr %4, i64 8
  %12 = load i32, ptr %11, align 8
  %.not24 = icmp sgt i32 %10, %12
  br i1 %.not24, label %24, label %.preheader

.preheader:                                       ; preds = %8
  %.0.in30 = getelementptr inbounds nuw i8, ptr %3, i64 24
  %.031 = load ptr, ptr %.0.in30, align 8
  %.not2632 = icmp eq ptr %.031, null
  br i1 %.not2632, label %.loopexit, label %.lr.ph

.lr.ph:                                           ; preds = %.preheader, %23
  %.033 = phi ptr [ %.0, %23 ], [ %.031, %.preheader ]
  %13 = getelementptr inbounds nuw i8, ptr %.033, i64 16
  %14 = load ptr, ptr %13, align 8
  %15 = icmp eq ptr %14, %4
  br i1 %15, label %16, label %23

16:                                               ; preds = %.lr.ph
  %17 = getelementptr inbounds nuw i8, ptr %.033, i64 4
  %18 = load i16, ptr %17, align 4
  %19 = icmp eq i16 %18, %2
  br i1 %19, label %20, label %23

20:                                               ; preds = %16
  %21 = load i32, ptr %.033, align 8
  %22 = icmp eq i32 %21, %1
  br i1 %22, label %.loopexit27, label %23

23:                                               ; preds = %.lr.ph, %16, %20
  %.0.in = getelementptr inbounds nuw i8, ptr %.033, i64 24
  %.0 = load ptr, ptr %.0.in, align 8
  %.not26 = icmp eq ptr %.0, null
  br i1 %.not26, label %.loopexit, label %.lr.ph, !llvm.loop !14

24:                                               ; preds = %8
  %25 = getelementptr inbounds nuw i8, ptr %4, i64 16
  %.134 = load ptr, ptr %25, align 8
  %.not2535 = icmp eq ptr %.134, null
  br i1 %.not2535, label %.loopexit, label %.lr.ph37

.lr.ph37:                                         ; preds = %24, %36
  %.136 = phi ptr [ %.1, %36 ], [ %.134, %24 ]
  %26 = getelementptr inbounds nuw i8, ptr %.136, i64 8
  %27 = load ptr, ptr %26, align 8
  %28 = icmp eq ptr %27, %3
  br i1 %28, label %29, label %36

29:                                               ; preds = %.lr.ph37
  %30 = getelementptr inbounds nuw i8, ptr %.136, i64 4
  %31 = load i16, ptr %30, align 4
  %32 = icmp eq i16 %31, %2
  br i1 %32, label %33, label %36

33:                                               ; preds = %29
  %34 = load i32, ptr %.136, align 8
  %35 = icmp eq i32 %34, %1
  br i1 %35, label %.loopexit27, label %36

36:                                               ; preds = %.lr.ph37, %29, %33
  %37 = getelementptr inbounds nuw i8, ptr %.136, i64 40
  %.1 = load ptr, ptr %37, align 8
  %.not25 = icmp eq ptr %.1, null
  br i1 %.not25, label %.loopexit, label %.lr.ph37, !llvm.loop !15

.loopexit:                                        ; preds = %23, %36, %.preheader, %24
  tail call fastcc void @createarc(ptr noundef %0, i32 noundef %1, i16 noundef signext %2, ptr noundef %3, ptr noundef %4)
  br label %.loopexit27

.loopexit27:                                      ; preds = %20, %33, %.loopexit
  ret void
}